((dp0
S'stadgreidsla'
p1
F66039.8
sS'husnaedisstudningur'
p2
I41666
sS'utvarpsgjald'
p3
I1400
sS'lifeyrisgreidsla'
p4
F28000.0
sS'tekjur'
p5
(lp6
I350000
aI0
aI0
aI0
asS'pjeng_i_vasa'
p7
F378675.5333333333
sS'tekjur_e_skatt'
p8
F255960.2
sS'barnabaetur'
p9
F82449.33333333333
s(dp10
S'sereignaridgjald'
p11
F0.04
sS'vaxtagjold'
p12
I1300000
sS'idgjald'
p13
F0.04
sS'heimiliseignir'
p14
I0
sg5
g6
sS'eignir'
p15
I0
sS'heimilistekjur'
p16
I0
sS'fjoldi_barna_undir_7'
p17
I1
sS'busetuform'
p18
I1
sS'husnaediskostnadur'
p19
I0
sS'hjuskaparstada'
p20
I2
sS'fjoldi_heimilismanna'
p21
I0
sS'husnaedislan'
p22
I24000000
sS'fjoldi_barna'
p23
I3
stp24
.