((dp0
S'medlag_ororka'
p1
I0
sS'barnalifeyrir_ororka'
p2
I95037
sS'barnabaetur'
p3
F64535.425226666666
sS'foreldralaun_ororka'
p4
I23844
sS'foreldralaun_elli'
p5
I0
sS'bensinstyrkur_elli'
p6
I0
sS'husnaedisstudningur'
p7
F32688.103089753084
sS'tekjutrygging_ororka'
p8
F79445.47
sS'tekjur'
p9
(lp10
I350000
aI25000
aI0
aI0
asS'pjeng_i_vasa'
p11
F460335.6658422197
sS'utvarpsgjald'
p12
I1400
sS'ellilifeyrir_e_skatt'
p13
I0
sS'stadgreidsla'
p14
F68625.6
sS'heimilisuppbot_ellifeyrir'
p15
I0
sS'lifeyrisgreidsla'
p16
F21000.0
sS'fjarmagnstekjur_e_skatt'
p17
F20000.0
sS'heimilisuppbot_ororka'
p18
F13540.547999999999
sS'barnalifeyrir_elli'
p19
I0
sS'ororka_alls'
p20
F228461.89299999998
sS'ororkulifeyrir'
p21
F10057.5
sS'ororka_stadgreidsla'
p22
F49287.15547419999
sS'ellilifeyrir'
p23
I0
sS'medlag_elli'
p24
I0
sS'ororka_e_skatt'
p25
F84137.73752579998
sS'husnaedisstudningur_tekjuskerd'
p26
F7429.114338580246
sS'ellilif_stadgreidsla'
p27
I0
sS'samtals_elli'
p28
I0
sS'framfaersluppbot_ororka'
p29
I0
sS'aldurstengd_ororkuuppbot'
p30
F6537.374999999999
sS'bensinsstyrkur_ororka'
p31
I0
sS'tekjur_e_skatt'
p32
F260374.4
sS'husnaedisstudningur_eignaskerd'
p33
F43216.115905000006
s(dp34
S'aldur'
p35
I40
sS'fjoldi_barna_undir_7'
p36
I1
sS'busetuform'
p37
I1
sS'fyrsta_75_mat'
p38
I30
sS'ororkuhlutfall'
p39
I80
sS'sereignaridgjald'
p40
F0.02
sS'medlag_fj'
p41
I0
sS'hreyfihomlun'
p42
I0
sS'vaxtagjold'
p43
I1000000
sS'heimiliseignir'
p44
I0
sS'husnaediskostnadur'
p45
I0
sS'hjuskaparstada'
p46
I2
sS'fjoldi_heimilismanna'
p47
I0
sg9
g10
sS'frestun_ellilifeyris'
p48
I0
sS'husnaedislan'
p49
I22000000
sS'eignir'
p50
I5000000
sS'idgjald'
p51
F0.04
sS'byr_einn'
p52
I0
sS'heimilistekjur'
p53
I0
sS'fjoldi_barna'
p54
I3
stp55
.