((dp0
S'medlag_ororka'
p1
I0
sS'barnalifeyrir_ororka'
p2
I0
sS'barnabaetur'
p3
I0
sS'husnaedisstudningur'
p4
F19291.677136410253
sS'tekjutrygging_ororka'
p5
I0
sS'pjeng_i_vasa'
p6
F300261.7396532103
sS'heimilisuppbot_ellifeyrir'
p7
F41760.367999999995
sS'heimilisuppbot_ororka'
p8
I0
sS'barnalifeyrir_elli'
p9
I0
sS'samtals_elli'
p10
F247653.128
sS'framfaersluppbot_ororka'
p11
I0
sS'ellilifeyrir_e_skatt'
p12
F156170.0625168
sS'tekjur_e_skatt'
p13
F115200.0
sS'ellilif_stadgreidsla'
p14
F91483.0654832
sS'ellilifeyrir'
p15
F190053.76
sS'foreldralaun_ororka'
p16
I0
sS'bensinstyrkur_elli'
p17
I15839
sS'foreldralaun_elli'
p18
I0
sS'tekjur'
p19
(lp20
I120000
aI12000
aI0
aI0
asS'utvarpsgjald'
p21
I0
sS'stadgreidsla'
p22
I0
sS'lifeyrisgreidsla'
p23
F4800.0
sS'fjarmagnstekjur_e_skatt'
p24
F9600.0
sS'ororka_alls'
p25
I0
sS'ororkulifeyrir'
p26
I0
sS'ororka_stadgreidsla'
p27
I0
sS'medlag_elli'
p28
I0
sS'ororka_e_skatt'
p29
I0
sS'aldurstengd_ororkuuppbot'
p30
I0
sS'bensinsstyrkur_ororka'
p31
I0
s(dp32
S'aldur'
p33
I80
sS'fjoldi_barna_undir_7'
p34
I0
sS'busetuform'
p35
I2
sS'fyrsta_75_mat'
p36
I0
sS'ororkuhlutfall'
p37
I0
sS'sereignaridgjald'
p38
F0.0
sS'medlag_fj'
p39
I0
sS'hreyfihomlun'
p40
I1
sS'vaxtagjold'
p41
I0
sS'heimiliseignir'
p42
I7000000
sS'husnaediskostnadur'
p43
I160000
sS'hjuskaparstada'
p44
I1
sS'fjoldi_heimilismanna'
p45
I1
sg19
g20
sS'frestun_ellilifeyris'
p46
I8
sS'husnaedislan'
p47
I0
sS'eignir'
p48
I7000000
sS'idgjald'
p49
F0.04
sS'byr_einn'
p50
I0
sS'heimilistekjur'
p51
I132000
sS'fjoldi_barna'
p52
I0
stp53
.