((dp0
S'medlag_ororka'
p1
I0
sS'barnalifeyrir_ororka'
p2
I0
sS'barnabaetur'
p3
F13800.333333333334
sS'foreldralaun_ororka'
p4
I0
sS'foreldralaun_elli'
p5
I0
sS'bensinstyrkur_elli'
p6
I0
sS'husnaedisstudningur'
p7
F14308.333333333328
sS'tekjutrygging_ororka'
p8
I0
sS'tekjur'
p9
(lp10
I350000
aI10000
aI450000
aI20000
asS'pjeng_i_vasa'
p11
F290668.86666666664
sS'utvarpsgjald'
p12
I1400
sS'ellilifeyrir_e_skatt'
p13
I0
sS'stadgreidsla'
p14
F66039.8
sS'heimilisuppbot_ellifeyrir'
p15
I0
sS'lifeyrisgreidsla'
p16
F28000.0
sS'fjarmagnstekjur_e_skatt'
p17
F8000.0
sS'heimilisuppbot_ororka'
p18
I0
sS'barnalifeyrir_elli'
p19
I0
sS'ororka_alls'
p20
I0
sS'ororkulifeyrir'
p21
I0
sS'ororka_stadgreidsla'
p22
I0
sS'ellilifeyrir'
p23
I0
sS'medlag_elli'
p24
I0
sS'ororka_e_skatt'
p25
I0
sS'husnaedisstudningur_tekjuskerd'
p26
I0
sS'ellilif_stadgreidsla'
p27
I0
sS'samtals_elli'
p28
I0
sS'framfaersluppbot_ororka'
p29
I0
sS'aldurstengd_ororkuuppbot'
p30
I0
sS'bensinsstyrkur_ororka'
p31
I0
sS'tekjur_e_skatt'
p32
F255960.2
sS'husnaedisstudningur_eignaskerd'
p33
F70550.00000000001
s(dp34
S'aldur'
p35
I38
sS'fjoldi_barna_undir_7'
p36
I1
sS'busetuform'
p37
I1
sS'fyrsta_75_mat'
p38
I0
sS'ororkuhlutfall'
p39
I0
sS'sereignaridgjald'
p40
F0.04
sS'medlag_fj'
p41
I0
sS'hreyfihomlun'
p42
I0
sS'vaxtagjold'
p43
I1300000
sS'heimiliseignir'
p44
I0
sS'husnaediskostnadur'
p45
I0
sS'hjuskaparstada'
p46
I3
sS'fjoldi_heimilismanna'
p47
I0
sg9
g10
sS'frestun_ellilifeyris'
p48
I0
sS'husnaedislan'
p49
I17000000
sS'eignir'
p50
I7000000
sS'idgjald'
p51
F0.04
sS'byr_einn'
p52
I0
sS'heimilistekjur'
p53
I0
sS'fjoldi_barna'
p54
I3
stp55
.